target datalayout = "e-m:e-p270:32:32-p271:32:32-p272:64:64-i64:64-i128:128-f80:128-n8:16:32:64-S128"
target triple = "x86_64-pc-linux-gnu"

%struct.ident_t = type { i32, i32, i32, i32, ptr }
%"class.ncnn::BatchNorm" = type { %"class.ncnn::Layer", i32, float, %"class.ncnn::Mat", %"class.ncnn::Mat", %"class.ncnn::Mat", %"class.ncnn::Mat", %"class.ncnn::Mat", %"class.ncnn::Mat" }
%"class.ncnn::Layer" = type { ptr, i8, i8, i8, i8, i8, i8, i8, i8, i8, i8, i8, i8, i8, i8, i8, i8, i8, i8, i8, i8, i32, ptr, i32, %"class.std::__cxx11::basic_string", %"class.std::__cxx11::basic_string", %"class.std::vector", %"class.std::vector", %"class.std::vector.3", %"class.std::vector.3" }
%"class.std::__cxx11::basic_string" = type { %"struct.std::__cxx11::basic_string<char>::_Alloc_hider", i64, %union.anon }
%"struct.std::__cxx11::basic_string<char>::_Alloc_hider" = type { ptr }
%union.anon = type { i64, [8 x i8] }
%"class.std::vector" = type { %"struct.std::_Vector_base" }
%"struct.std::_Vector_base" = type { %"struct.std::_Vector_base<int, std::allocator<int>>::_Vector_impl" }
%"struct.std::_Vector_base<int, std::allocator<int>>::_Vector_impl" = type { %"struct.std::_Vector_base<int, std::allocator<int>>::_Vector_impl_data" }
%"struct.std::_Vector_base<int, std::allocator<int>>::_Vector_impl_data" = type { ptr, ptr, ptr }
%"class.std::vector.3" = type { %"struct.std::_Vector_base.4" }
%"struct.std::_Vector_base.4" = type { %"struct.std::_Vector_base<ncnn::Mat, std::allocator<ncnn::Mat>>::_Vector_impl" }
%"struct.std::_Vector_base<ncnn::Mat, std::allocator<ncnn::Mat>>::_Vector_impl" = type { %"struct.std::_Vector_base<ncnn::Mat, std::allocator<ncnn::Mat>>::_Vector_impl_data" }
%"struct.std::_Vector_base<ncnn::Mat, std::allocator<ncnn::Mat>>::_Vector_impl_data" = type { ptr, ptr, ptr }
%"class.ncnn::Mat" = type { ptr, ptr, i64, i32, ptr, i32, i32, i32, i32, i32, i64 }
%"class.ncnn::Option" = type { i8, i32, ptr, ptr, i32, i8, i8, i8, i8, i8, i8, i8, i8, i8, i8, i8, i8, i8, i8, i8, i8, i8, i8, i8, i8, i32, i8, i8, i8, i8, i8, i8, i8, i8, i8, i8, i8, i8 }
%struct.__loadu_ps = type { <4 x float> }
%struct.__storeu_ps = type { <4 x float> }

@2 = private unnamed_addr constant %struct.ident_t { i32 0, i32 2, i32 0, i32 22, ptr @0 }, align 8

; Function Attrs: alwaysinline mustprogress nounwind uwtable
define internal noundef nofpclass(nan inf) <4 x float> @_ZL10_mm_add_psDv4_fS_(<4 x float> noundef nofpclass(nan inf) %0, <4 x float> noundef nofpclass(nan inf) %1) #6 {
  %3 = alloca <4 x float>, align 16
  %4 = alloca <4 x float>, align 16
  store <4 x float> %0, ptr %3, align 16, !tbaa !31
  store <4 x float> %1, ptr %4, align 16, !tbaa !31
  %5 = load <4 x float>, ptr %3, align 16, !tbaa !31
  %6 = load <4 x float>, ptr %4, align 16, !tbaa !31
  %7 = fadd fast <4 x float> %5, %6
  ret <4 x float> %7
}

; Function Attrs: alwaysinline mustprogress nounwind uwtable
define internal noundef nofpclass(nan inf) <4 x float> @_ZL10_mm_mul_psDv4_fS_(<4 x float> noundef nofpclass(nan inf) %0, <4 x float> noundef nofpclass(nan inf) %1) #6 {
  %3 = alloca <4 x float>, align 16
  %4 = alloca <4 x float>, align 16
  store <4 x float> %0, ptr %3, align 16, !tbaa !31
  store <4 x float> %1, ptr %4, align 16, !tbaa !31
  %5 = load <4 x float>, ptr %3, align 16, !tbaa !31
  %6 = load <4 x float>, ptr %4, align 16, !tbaa !31
  %7 = fmul fast <4 x float> %5, %6
  ret <4 x float> %7
}

; Function Attrs: alwaysinline mustprogress nounwind uwtable
define internal void @_ZL13_mm_storeu_psPfDv4_f(ptr noundef %0, <4 x float> noundef nofpclass(nan inf) %1) #6 {
  %3 = alloca ptr, align 8
  %4 = alloca <4 x float>, align 16
  store ptr %0, ptr %3, align 8, !tbaa !29
  store <4 x float> %1, ptr %4, align 16, !tbaa !31
  %5 = load <4 x float>, ptr %4, align 16, !tbaa !31
  %6 = load ptr, ptr %3, align 8, !tbaa !29
  %7 = getelementptr inbounds nuw %struct.__storeu_ps, ptr %6, i32 0, i32 0
  store <4 x float> %5, ptr %7, align 1, !tbaa !31
  ret void
}

; Function Attrs: alwaysinline mustprogress uwtable
define internal noundef nofpclass(nan inf) <4 x float> @_ZL17_mm_comp_fmadd_psRKDv4_fS1_S1_(ptr noundef nonnull align 16 dereferenceable(16) %0, ptr noundef nonnull align 16 dereferenceable(16) %1, ptr noundef nonnull align 16 dereferenceable(16) %2) #7 {
  %4 = alloca ptr, align 8
  %5 = alloca ptr, align 8
  %6 = alloca ptr, align 8
  store ptr %0, ptr %4, align 8, !tbaa !54
  store ptr %1, ptr %5, align 8, !tbaa !54
  store ptr %2, ptr %6, align 8, !tbaa !54
  %7 = load ptr, ptr %4, align 8, !tbaa !54
  %8 = load <4 x float>, ptr %7, align 16, !tbaa !31
  %9 = load ptr, ptr %5, align 8, !tbaa !54
  %10 = load <4 x float>, ptr %9, align 16, !tbaa !31
  %11 = call fast noundef nofpclass(nan inf) <4 x float> @_ZL10_mm_mul_psDv4_fS_(<4 x float> noundef nofpclass(nan inf) %8, <4 x float> noundef nofpclass(nan inf) %10)
  %12 = load ptr, ptr %6, align 8, !tbaa !54
  %13 = load <4 x float>, ptr %12, align 16, !tbaa !31
  %14 = call fast noundef nofpclass(nan inf) <4 x float> @_ZL10_mm_add_psDv4_fS_(<4 x float> noundef nofpclass(nan inf) %11, <4 x float> noundef nofpclass(nan inf) %13)
  ret <4 x float> %14
}

; Function Attrs: alwaysinline mustprogress nounwind uwtable
define internal noundef nofpclass(nan inf) <4 x float> @_ZL12_mm_loadu_psPKf(ptr noundef %0) #6 {
  %2 = alloca ptr, align 8
  store ptr %0, ptr %2, align 8, !tbaa !29
  %3 = load ptr, ptr %2, align 8, !tbaa !29
  %4 = getelementptr inbounds nuw %struct.__loadu_ps, ptr %3, i32 0, i32 0
  %5 = load <4 x float>, ptr %4, align 1, !tbaa !31
  ret <4 x float> %5
}

; Function Attrs: alwaysinline mustprogress nounwind uwtable
define linkonce_odr hidden noundef ptr @_ZNK4ncnn3MatcvPKT_IfEEv(ptr noundef nonnull align 8 dereferenceable(72) %0) #5 comdat align 2 {
  %2 = alloca ptr, align 8
  store ptr %0, ptr %2, align 8, !tbaa !13
  %3 = load ptr, ptr %2, align 8
  %4 = getelementptr inbounds nuw %"class.ncnn::Mat", ptr %3, i32 0, i32 0
  %5 = load ptr, ptr %4, align 8, !tbaa !53
  ret ptr %5
}

; Function Attrs: alwaysinline mustprogress nounwind uwtable
define linkonce_odr hidden noundef ptr @_ZN4ncnn3MatcvPT_IfEEv(ptr noundef nonnull align 8 dereferenceable(72) %0) #5 comdat align 2 {
  %2 = alloca ptr, align 8
  store ptr %0, ptr %2, align 8, !tbaa !13
  %3 = load ptr, ptr %2, align 8
  %4 = getelementptr inbounds nuw %"class.ncnn::Mat", ptr %3, i32 0, i32 0
  %5 = load ptr, ptr %4, align 8, !tbaa !53
  ret ptr %5
}

; Function Attrs: mustprogress uwtable
define hidden noundef i32 @_ZNK4ncnn13BatchNorm_x8615forward_inplaceERNS_3MatERKNS_6OptionE(ptr noundef nonnull align 8 dereferenceable(648) %0, ptr noundef nonnull align 8 dereferenceable(72) %1, ptr noundef nonnull align 8 dereferenceable(64) %2) unnamed_addr #2 align 2 {
  %4 = alloca ptr, align 8
  %5 = alloca ptr, align 8
  %6 = alloca ptr, align 8
  %7 = alloca i32, align 4
  %8 = alloca i32, align 4
  %9 = alloca i32, align 4
  %10 = alloca i32, align 4
  %11 = alloca i32, align 4
  %12 = alloca i32, align 4
  %13 = alloca ptr, align 8
  %14 = alloca ptr, align 8
  %15 = alloca ptr, align 8
  %16 = alloca i32, align 4
  %17 = alloca i32, align 4
  %18 = alloca <4 x float>, align 16
  %19 = alloca <4 x float>, align 16
  %20 = alloca <4 x float>, align 16
  %21 = alloca i32, align 4
  %22 = alloca i32, align 4
  %23 = call i32 @__kmpc_global_thread_num(ptr @2)
  store ptr %0, ptr %4, align 8, !tbaa !11
  store ptr %1, ptr %5, align 8, !tbaa !13
  store ptr %2, ptr %6, align 8, !tbaa !15
  %24 = load ptr, ptr %4, align 8
  call void @llvm.lifetime.start.p0(i64 4, ptr %7) #9
  %25 = load ptr, ptr %5, align 8, !tbaa !13
  %26 = getelementptr inbounds nuw %"class.ncnn::Mat", ptr %25, i32 0, i32 5
  %27 = load i32, ptr %26, align 8, !tbaa !17
  store i32 %27, ptr %7, align 4, !tbaa !23
  call void @llvm.lifetime.start.p0(i64 4, ptr %8) #9
  %28 = load ptr, ptr %5, align 8, !tbaa !13
  %29 = getelementptr inbounds nuw %"class.ncnn::Mat", ptr %28, i32 0, i32 6
  %30 = load i32, ptr %29, align 4, !tbaa !24
  store i32 %30, ptr %8, align 4, !tbaa !23
  call void @llvm.lifetime.start.p0(i64 4, ptr %9) #9
  %31 = load ptr, ptr %5, align 8, !tbaa !13
  %32 = getelementptr inbounds nuw %"class.ncnn::Mat", ptr %31, i32 0, i32 7
  %33 = load i32, ptr %32, align 8, !tbaa !25
  store i32 %33, ptr %9, align 4, !tbaa !23
  call void @llvm.lifetime.start.p0(i64 4, ptr %10) #9
  %34 = load ptr, ptr %5, align 8, !tbaa !13
  %35 = getelementptr inbounds nuw %"class.ncnn::Mat", ptr %34, i32 0, i32 8
  %36 = load i32, ptr %35, align 4, !tbaa !26
  store i32 %36, ptr %10, align 4, !tbaa !23
  call void @llvm.lifetime.start.p0(i64 4, ptr %11) #9
  %37 = load ptr, ptr %5, align 8, !tbaa !13
  %38 = getelementptr inbounds nuw %"class.ncnn::Mat", ptr %37, i32 0, i32 9
  %39 = load i32, ptr %38, align 8, !tbaa !27
  store i32 %39, ptr %11, align 4, !tbaa !23
  call void @llvm.lifetime.start.p0(i64 4, ptr %12) #9
  %40 = load ptr, ptr %5, align 8, !tbaa !13
  %41 = getelementptr inbounds nuw %"class.ncnn::Mat", ptr %40, i32 0, i32 3
  %42 = load i32, ptr %41, align 8, !tbaa !28
  store i32 %42, ptr %12, align 4, !tbaa !23
  %43 = load i32, ptr %7, align 4, !tbaa !23
  %44 = icmp eq i32 %43, 1
  br i1 %44, label %45, label %104

45:                                               ; preds = %3
  call void @llvm.lifetime.start.p0(i64 8, ptr %13) #9
  %46 = load ptr, ptr %5, align 8, !tbaa !13
  %47 = call noundef ptr @_ZN4ncnn3MatcvPT_IfEEv(ptr noundef nonnull align 8 dereferenceable(72) %46)
  store ptr %47, ptr %13, align 8, !tbaa !29
  call void @llvm.lifetime.start.p0(i64 8, ptr %14) #9
  %48 = getelementptr inbounds nuw %"class.ncnn::BatchNorm", ptr %24, i32 0, i32 7
  %49 = call noundef ptr @_ZNK4ncnn3MatcvPKT_IfEEv(ptr noundef nonnull align 8 dereferenceable(72) %48)
  store ptr %49, ptr %14, align 8, !tbaa !29
  call void @llvm.lifetime.start.p0(i64 8, ptr %15) #9
  %50 = getelementptr inbounds nuw %"class.ncnn::BatchNorm", ptr %24, i32 0, i32 8
  %51 = call noundef ptr @_ZNK4ncnn3MatcvPKT_IfEEv(ptr noundef nonnull align 8 dereferenceable(72) %50)
  store ptr %51, ptr %15, align 8, !tbaa !29
  call void @llvm.lifetime.start.p0(i64 4, ptr %16) #9
  %52 = load i32, ptr %8, align 4, !tbaa !23
  %53 = load i32, ptr %12, align 4, !tbaa !23
  %54 = mul nsw i32 %52, %53
  store i32 %54, ptr %16, align 4, !tbaa !23
  call void @llvm.lifetime.start.p0(i64 4, ptr %17) #9
  store i32 0, ptr %17, align 4, !tbaa !23
  br label %55

55:                                               ; preds = %76, %45
  %56 = load i32, ptr %17, align 4, !tbaa !23
  %57 = add nsw i32 %56, 3
  %58 = load i32, ptr %16, align 4, !tbaa !23
  %59 = icmp slt i32 %57, %58
  br i1 %59, label %60, label %79

60:                                               ; preds = %55
  call void @llvm.lifetime.start.p0(i64 16, ptr %18) #9
  %61 = load ptr, ptr %13, align 8, !tbaa !29
  %62 = call fast noundef nofpclass(nan inf) <4 x float> @_ZL12_mm_loadu_psPKf(ptr noundef %61)
  store <4 x float> %62, ptr %18, align 16, !tbaa !31
  call void @llvm.lifetime.start.p0(i64 16, ptr %19) #9
  %63 = load ptr, ptr %14, align 8, !tbaa !29
  %64 = call fast noundef nofpclass(nan inf) <4 x float> @_ZL12_mm_loadu_psPKf(ptr noundef %63)
  store <4 x float> %64, ptr %19, align 16, !tbaa !31
  call void @llvm.lifetime.start.p0(i64 16, ptr %20) #9
  %65 = load ptr, ptr %15, align 8, !tbaa !29
  %66 = call fast noundef nofpclass(nan inf) <4 x float> @_ZL12_mm_loadu_psPKf(ptr noundef %65)
  store <4 x float> %66, ptr %20, align 16, !tbaa !31
  %67 = call fast noundef nofpclass(nan inf) <4 x float> @_ZL17_mm_comp_fmadd_psRKDv4_fS1_S1_(ptr noundef nonnull align 16 dereferenceable(16) %18, ptr noundef nonnull align 16 dereferenceable(16) %20, ptr noundef nonnull align 16 dereferenceable(16) %19)
  store <4 x float> %67, ptr %18, align 16, !tbaa !31
  %68 = load ptr, ptr %13, align 8, !tbaa !29
  %69 = load <4 x float>, ptr %18, align 16, !tbaa !31
  call void @_ZL13_mm_storeu_psPfDv4_f(ptr noundef %68, <4 x float> noundef nofpclass(nan inf) %69)
  %70 = load ptr, ptr %13, align 8, !tbaa !29
  %71 = getelementptr inbounds float, ptr %70, i64 4
  store ptr %71, ptr %13, align 8, !tbaa !29
  %72 = load ptr, ptr %14, align 8, !tbaa !29
  %73 = getelementptr inbounds float, ptr %72, i64 4
  store ptr %73, ptr %14, align 8, !tbaa !29
  %74 = load ptr, ptr %15, align 8, !tbaa !29
  %75 = getelementptr inbounds float, ptr %74, i64 4
  store ptr %75, ptr %15, align 8, !tbaa !29
  call void @llvm.lifetime.end.p0(i64 16, ptr %20) #9
  call void @llvm.lifetime.end.p0(i64 16, ptr %19) #9
  call void @llvm.lifetime.end.p0(i64 16, ptr %18) #9
  br label %76

76:                                               ; preds = %60
  %77 = load i32, ptr %17, align 4, !tbaa !23
  %78 = add nsw i32 %77, 4
  store i32 %78, ptr %17, align 4, !tbaa !23
  br label %55, !llvm.loop !32

79:                                               ; preds = %55
  br label %80

80:                                               ; preds = %100, %79
  %81 = load i32, ptr %17, align 4, !tbaa !23
  %82 = load i32, ptr %16, align 4, !tbaa !23
  %83 = icmp slt i32 %81, %82
  br i1 %83, label %84, label %103

84:                                               ; preds = %80
  %85 = load ptr, ptr %15, align 8, !tbaa !29
  %86 = load float, ptr %85, align 4, !tbaa !34
  %87 = load ptr, ptr %13, align 8, !tbaa !29
  %88 = load float, ptr %87, align 4, !tbaa !34
  %89 = fmul fast float %86, %88
  %90 = load ptr, ptr %14, align 8, !tbaa !29
  %91 = load float, ptr %90, align 4, !tbaa !34
  %92 = fadd fast float %89, %91
  %93 = load ptr, ptr %13, align 8, !tbaa !29
  store float %92, ptr %93, align 4, !tbaa !34
  %94 = load ptr, ptr %13, align 8, !tbaa !29
  %95 = getelementptr inbounds nuw float, ptr %94, i32 1
  store ptr %95, ptr %13, align 8, !tbaa !29
  %96 = load ptr, ptr %14, align 8, !tbaa !29
  %97 = getelementptr inbounds nuw float, ptr %96, i32 1
  store ptr %97, ptr %14, align 8, !tbaa !29
  %98 = load ptr, ptr %15, align 8, !tbaa !29
  %99 = getelementptr inbounds nuw float, ptr %98, i32 1
  store ptr %99, ptr %15, align 8, !tbaa !29
  br label %100

100:                                              ; preds = %84
  %101 = load i32, ptr %17, align 4, !tbaa !23
  %102 = add nsw i32 %101, 1
  store i32 %102, ptr %17, align 4, !tbaa !23
  br label %80, !llvm.loop !36

103:                                              ; preds = %80
  call void @llvm.lifetime.end.p0(i64 4, ptr %17) #9
  call void @llvm.lifetime.end.p0(i64 4, ptr %16) #9
  call void @llvm.lifetime.end.p0(i64 8, ptr %15) #9
  call void @llvm.lifetime.end.p0(i64 8, ptr %14) #9
  call void @llvm.lifetime.end.p0(i64 8, ptr %13) #9
  br label %104

104:                                              ; preds = %103, %3
  %105 = load i32, ptr %7, align 4, !tbaa !23
  %106 = icmp eq i32 %105, 2
  br i1 %106, label %107, label %115

107:                                              ; preds = %104
  call void @llvm.lifetime.start.p0(i64 4, ptr %21) #9
  %108 = load i32, ptr %8, align 4, !tbaa !23
  %109 = load i32, ptr %12, align 4, !tbaa !23
  %110 = mul nsw i32 %108, %109
  store i32 %110, ptr %21, align 4, !tbaa !23
  %111 = load ptr, ptr %6, align 8, !tbaa !15
  %112 = getelementptr inbounds nuw %"class.ncnn::Option", ptr %111, i32 0, i32 1
  %113 = load i32, ptr %112, align 4, !tbaa !37
  call void @__kmpc_push_num_threads(ptr @2, i32 %23, i32 %113)
  %114 = load ptr, ptr %5, align 8, !tbaa !13
  call void (ptr, i32, ptr, ...) @__kmpc_fork_call(ptr @2, i32 5, ptr @_ZNK4ncnn13BatchNorm_x8615forward_inplaceERNS_3MatERKNS_6OptionE.omp_outlined, ptr %9, ptr %114, ptr %24, ptr %12, ptr %21)
  call void @llvm.lifetime.end.p0(i64 4, ptr %21) #9
  br label %115

115:                                              ; preds = %107, %104
  %116 = load i32, ptr %7, align 4, !tbaa !23
  %117 = icmp eq i32 %116, 3
  br i1 %117, label %121, label %118

118:                                              ; preds = %115
  %119 = load i32, ptr %7, align 4, !tbaa !23
  %120 = icmp eq i32 %119, 4
  br i1 %120, label %121, label %133

121:                                              ; preds = %118, %115
  call void @llvm.lifetime.start.p0(i64 4, ptr %22) #9
  %122 = load i32, ptr %8, align 4, !tbaa !23
  %123 = load i32, ptr %9, align 4, !tbaa !23
  %124 = mul nsw i32 %122, %123
  %125 = load i32, ptr %10, align 4, !tbaa !23
  %126 = mul nsw i32 %124, %125
  %127 = load i32, ptr %12, align 4, !tbaa !23
  %128 = mul nsw i32 %126, %127
  store i32 %128, ptr %22, align 4, !tbaa !23
  %129 = load ptr, ptr %6, align 8, !tbaa !15
  %130 = getelementptr inbounds nuw %"class.ncnn::Option", ptr %129, i32 0, i32 1
  %131 = load i32, ptr %130, align 4, !tbaa !37
  call void @__kmpc_push_num_threads(ptr @2, i32 %23, i32 %131)
  %132 = load ptr, ptr %5, align 8, !tbaa !13
  call void (ptr, i32, ptr, ...) @__kmpc_fork_call(ptr @2, i32 5, ptr @_ZNK4ncnn13BatchNorm_x8615forward_inplaceERNS_3MatERKNS_6OptionE.omp_outlined.1, ptr %11, ptr %132, ptr %24, ptr %12, ptr %22)
  call void @llvm.lifetime.end.p0(i64 4, ptr %22) #9
  br label %133

133:                                              ; preds = %121, %118
  call void @llvm.lifetime.end.p0(i64 4, ptr %12) #9
  call void @llvm.lifetime.end.p0(i64 4, ptr %11) #9
  call void @llvm.lifetime.end.p0(i64 4, ptr %10) #9
  call void @llvm.lifetime.end.p0(i64 4, ptr %9) #9
  call void @llvm.lifetime.end.p0(i64 4, ptr %8) #9
  call void @llvm.lifetime.end.p0(i64 4, ptr %7) #9
  ret i32 0
}