; Function Attrs: mustprogress nounwind uwtable
define hidden noundef i32 @_ZNK4ncnn13BatchNorm_x8615forward_inplaceERNS_3MatERKNS_6OptionE(ptr noundef nonnull align 8 dereferenceable(648) %0, ptr noundef nonnull align 8 dereferenceable(72) %1, ptr noundef nonnull readonly align 8 captures(none) dereferenceable(64) %2) unnamed_addr #2 align 2 {
  %4 = alloca i32, align 4
  %5 = alloca i32, align 4
  %6 = alloca i32, align 4
  %7 = alloca i32, align 4
  %8 = alloca i32, align 4
  %9 = tail call i32 @__kmpc_global_thread_num(ptr nonnull @2)
  %10 = getelementptr inbounds nuw i8, ptr %1, i64 40
  %11 = load i32, ptr %10, align 8, !tbaa !18
  %12 = getelementptr inbounds nuw i8, ptr %1, i64 44
  %13 = load i32, ptr %12, align 4, !tbaa !19
  call void @llvm.lifetime.start.p0(i64 4, ptr nonnull %4) #6
  %14 = getelementptr inbounds nuw i8, ptr %1, i64 48
  %15 = load i32, ptr %14, align 8, !tbaa !20
  store i32 %15, ptr %4, align 4, !tbaa !21
  %16 = getelementptr inbounds nuw i8, ptr %1, i64 52
  %17 = load i32, ptr %16, align 4, !tbaa !22
  call void @llvm.lifetime.start.p0(i64 4, ptr nonnull %5) #6
  %18 = getelementptr inbounds nuw i8, ptr %1, i64 56
  %19 = load i32, ptr %18, align 8, !tbaa !23
  store i32 %19, ptr %5, align 4, !tbaa !21
  call void @llvm.lifetime.start.p0(i64 4, ptr nonnull %6) #6
  %20 = getelementptr inbounds nuw i8, ptr %1, i64 24
  %21 = load i32, ptr %20, align 8, !tbaa !24
  store i32 %21, ptr %6, align 4, !tbaa !21
  switch i32 %11, label %._crit_edge [
    i32 1, label %22
    i32 2, label %.thread
  ]

22:                                               ; preds = %3
  %23 = load ptr, ptr %1, align 8, !tbaa !16
  %24 = getelementptr inbounds nuw i8, ptr %0, i64 504
  %25 = load ptr, ptr %24, align 8, !tbaa !16
  %26 = getelementptr inbounds nuw i8, ptr %0, i64 576
  %27 = load ptr, ptr %26, align 8, !tbaa !16
  %28 = mul nsw i32 %21, %13
  %29 = icmp sgt i32 %28, 3
  br i1 %29, label %.lr.ph.preheader, label %.preheader

.lr.ph.preheader:                                 ; preds = %22
  %30 = and i32 %28, 2147483644
  br label %.lr.ph

.preheader:                                       ; preds = %.lr.ph, %22
  %.044.lcssa = phi ptr [ %25, %22 ], [ %38, %.lr.ph ]
  %.042.lcssa = phi ptr [ %27, %22 ], [ %39, %.lr.ph ]
  %.040.lcssa = phi ptr [ %23, %22 ], [ %37, %.lr.ph ]
  %.0.lcssa = phi i32 [ 0, %22 ], [ %30, %.lr.ph ]
  %31 = icmp slt i32 %.0.lcssa, %28
  br i1 %31, label %.lr.ph60, label %._crit_edge.thread

.lr.ph:                                           ; preds = %.lr.ph.preheader, %.lr.ph
  %.052 = phi i32 [ %40, %.lr.ph ], [ 0, %.lr.ph.preheader ]
  %.04051 = phi ptr [ %37, %.lr.ph ], [ %23, %.lr.ph.preheader ]
  %.04250 = phi ptr [ %39, %.lr.ph ], [ %27, %.lr.ph.preheader ]
  %.04449 = phi ptr [ %38, %.lr.ph ], [ %25, %.lr.ph.preheader ]
  %32 = load <4 x float>, ptr %.04051, align 1, !tbaa !25
  %33 = load <4 x float>, ptr %.04449, align 1, !tbaa !25
  %34 = load <4 x float>, ptr %.04250, align 1, !tbaa !25
  %35 = fmul fast <4 x float> %34, %32
  %36 = fadd fast <4 x float> %35, %33
  store <4 x float> %36, ptr %.04051, align 1, !tbaa !25
  %37 = getelementptr inbounds nuw i8, ptr %.04051, i64 16
  %38 = getelementptr inbounds nuw i8, ptr %.04449, i64 16
  %39 = getelementptr inbounds nuw i8, ptr %.04250, i64 16
  %40 = add nuw nsw i32 %.052, 4
  %41 = or disjoint i32 %40, 3
  %42 = icmp slt i32 %41, %28
  br i1 %42, label %.lr.ph, label %.preheader, !llvm.loop !26

.lr.ph60:                                         ; preds = %.preheader, %.lr.ph60
  %.159 = phi i32 [ %51, %.lr.ph60 ], [ %.0.lcssa, %.preheader ]
  %.14158 = phi ptr [ %48, %.lr.ph60 ], [ %.040.lcssa, %.preheader ]
  %.14357 = phi ptr [ %50, %.lr.ph60 ], [ %.042.lcssa, %.preheader ]
  %.14556 = phi ptr [ %49, %.lr.ph60 ], [ %.044.lcssa, %.preheader ]
  %43 = load float, ptr %.14357, align 4, !tbaa !28
  %44 = load float, ptr %.14158, align 4, !tbaa !28
  %45 = fmul fast float %44, %43
  %46 = load float, ptr %.14556, align 4, !tbaa !28
  %47 = fadd fast float %45, %46
  store float %47, ptr %.14158, align 4, !tbaa !28
  %48 = getelementptr inbounds nuw i8, ptr %.14158, i64 4
  %49 = getelementptr inbounds nuw i8, ptr %.14556, i64 4
  %50 = getelementptr inbounds nuw i8, ptr %.14357, i64 4
  %51 = add nuw nsw i32 %.159, 1
  %exitcond.not = icmp eq i32 %51, %28
  br i1 %exitcond.not, label %._crit_edge.thread, label %.lr.ph60, !llvm.loop !30

.thread:                                          ; preds = %3
  call void @llvm.lifetime.start.p0(i64 4, ptr nonnull %7) #6
  %52 = mul nsw i32 %21, %13
  store i32 %52, ptr %7, align 4, !tbaa !21
  %53 = getelementptr inbounds nuw i8, ptr %2, i64 4
  %54 = load i32, ptr %53, align 4, !tbaa !31
  tail call void @__kmpc_push_num_threads(ptr nonnull @2, i32 %9, i32 %54)
  call void (ptr, i32, ptr, ...) @__kmpc_fork_call(ptr nonnull @2, i32 5, ptr nonnull @_ZNK4ncnn13BatchNorm_x8615forward_inplaceERNS_3MatERKNS_6OptionE.omp_outlined, ptr nonnull %4, ptr nonnull %1, ptr nonnull %0, ptr nonnull %6, ptr nonnull %7)
  call void @llvm.lifetime.end.p0(i64 4, ptr nonnull %7) #6
  br label %._crit_edge.thread

._crit_edge:                                      ; preds = %3
  %55 = add i32 %11, -3
  %or.cond = icmp ult i32 %55, 2
  br i1 %or.cond, label %56, label %._crit_edge.thread

56:                                               ; preds = %._crit_edge
  call void @llvm.lifetime.start.p0(i64 4, ptr nonnull %8) #6
  %57 = mul i32 %17, %13
  %58 = mul i32 %57, %15
  %59 = mul nsw i32 %58, %21
  store i32 %59, ptr %8, align 4, !tbaa !21
  %60 = getelementptr inbounds nuw i8, ptr %2, i64 4
  %61 = load i32, ptr %60, align 4, !tbaa !31
  tail call void @__kmpc_push_num_threads(ptr nonnull @2, i32 %9, i32 %61)
  call void (ptr, i32, ptr, ...) @__kmpc_fork_call(ptr nonnull @2, i32 5, ptr nonnull @_ZNK4ncnn13BatchNorm_x8615forward_inplaceERNS_3MatERKNS_6OptionE.omp_outlined.1, ptr nonnull %5, ptr nonnull %1, ptr nonnull %0, ptr nonnull %6, ptr nonnull %8)
  call void @llvm.lifetime.end.p0(i64 4, ptr nonnull %8) #6
  br label %._crit_edge.thread

._crit_edge.thread:                               ; preds = %.lr.ph60, %.preheader, %.thread, %._crit_edge, %56
  call void @llvm.lifetime.end.p0(i64 4, ptr nonnull %6) #6
  call void @llvm.lifetime.end.p0(i64 4, ptr nonnull %5) #6
  call void @llvm.lifetime.end.p0(i64 4, ptr nonnull %4) #6
  ret i32 0
}